target datalayout = "e-m:e-p270:32:32-p271:32:32-p272:64:64-i64:64-i128:128-f80:128-n8:16:32:64-S128"
target triple = "x86_64-pc-linux-gnu"

%class.QModelIndex = type { i32, i32, i64, ptr }

; Function Attrs: inlinehint mustprogress nounwind null_pointer_is_valid sspstrong uwtable
define linkonce_odr void @_ZN11QModelIndexC2Ev(ptr noundef align 8 dereferenceable_or_null(24) %0) unnamed_addr #3 comdat align 2 {
  %2 = alloca ptr, align 8
  store ptr %0, ptr %2, align 8
  %3 = load ptr, ptr %2, align 8
  %4 = getelementptr inbounds nuw %class.QModelIndex, ptr %3, i32 0, i32 0
  store i32 -1, ptr %4, align 8
  %5 = getelementptr inbounds nuw %class.QModelIndex, ptr %3, i32 0, i32 1
  store i32 -1, ptr %5, align 4
  %6 = getelementptr inbounds nuw %class.QModelIndex, ptr %3, i32 0, i32 2
  store i64 0, ptr %6, align 8
  %7 = getelementptr inbounds nuw %class.QModelIndex, ptr %3, i32 0, i32 3
  store ptr null, ptr %7, align 8
  ret void
}

; Function Attrs: mustprogress null_pointer_is_valid sspstrong uwtable
define noundef zeroext i1 @_ZN8UatModel8moveRowsERK11QModelIndexiiS2_i(ptr noundef align 8 dereferenceable_or_null(80) %0, ptr noundef align 8 dereferenceable(24) %1, i32 noundef %2, i32 noundef %3, ptr noundef align 8 dereferenceable(24) %4, i32 noundef %5) unnamed_addr #0 align 2 {
  %7 = alloca i1, align 1
  %8 = alloca ptr, align 8
  %9 = alloca ptr, align 8
  %10 = alloca i32, align 4
  %11 = alloca i32, align 4
  %12 = alloca ptr, align 8
  %13 = alloca i32, align 4
  %14 = alloca %class.QModelIndex, align 8
  %15 = alloca %class.QModelIndex, align 8
  %16 = alloca %class.QModelIndex, align 8
  %17 = alloca %class.QModelIndex, align 8
  %18 = alloca i32, align 4
  %19 = alloca %class.QModelIndex, align 8
  %20 = alloca %class.QModelIndex, align 8
  %21 = alloca i32, align 4
  store ptr %0, ptr %8, align 8
  store ptr %1, ptr %9, align 8
  store i32 %2, ptr %10, align 4
  store i32 %3, ptr %11, align 4
  store ptr %4, ptr %12, align 8
  store i32 %5, ptr %13, align 4
  %22 = load ptr, ptr %8, align 8
  %23 = load i32, ptr %10, align 4
  %24 = icmp slt i32 %23, 0
  call void @llvm.lifetime.start.p0(i64 24, ptr %14) #23
  call void @llvm.lifetime.start.p0(i64 24, ptr %15) #23
  br i1 %24, label %45, label %25

25:                                               ; preds = %6
  %26 = load i32, ptr %10, align 4
  call void @_ZN11QModelIndexC2Ev(ptr noundef align 8 dereferenceable_or_null(24) %14) #23
  %27 = load ptr, ptr %22, align 8
  %28 = getelementptr inbounds ptr, ptr %27, i64 15
  %29 = load ptr, ptr %28, align 8
  %30 = call noundef i32 %29(ptr noundef align 8 dereferenceable_or_null(80) %22, ptr noundef align 8 dereferenceable(24) %14)
  %31 = icmp sge i32 %26, %30
  br i1 %31, label %45, label %32

32:                                               ; preds = %25
  %33 = load i32, ptr %13, align 4
  %34 = icmp slt i32 %33, 0
  br i1 %34, label %45, label %35

35:                                               ; preds = %32
  %36 = load i32, ptr %13, align 4
  call void @_ZN11QModelIndexC2Ev(ptr noundef align 8 dereferenceable_or_null(24) %15) #23
  %37 = load ptr, ptr %22, align 8
  %38 = getelementptr inbounds ptr, ptr %37, i64 15
  %39 = load ptr, ptr %38, align 8
  %40 = call noundef i32 %39(ptr noundef align 8 dereferenceable_or_null(80) %22, ptr noundef align 8 dereferenceable(24) %15)
  %41 = icmp sge i32 %36, %40
  br i1 %41, label %45, label %42

42:                                               ; preds = %35
  %43 = load i32, ptr %11, align 4
  %44 = icmp slt i32 %43, 0
  br label %45

45:                                               ; preds = %42, %35, %32, %25, %6
  %46 = phi i1 [ true, %35 ], [ true, %32 ], [ true, %25 ], [ true, %6 ], [ %44, %42 ]
  call void @llvm.lifetime.end.p0(i64 24, ptr %15) #23
  call void @llvm.lifetime.end.p0(i64 24, ptr %14) #23
  br i1 %46, label %47, label %48

47:                                               ; preds = %45
  store i1 false, ptr %7, align 1
  br label %122

48:                                               ; preds = %45
  %49 = load i32, ptr %11, align 4
  %50 = icmp eq i32 %49, 0
  br i1 %50, label %51, label %52

51:                                               ; preds = %48
  store i1 true, ptr %7, align 1
  br label %122

52:                                               ; preds = %48
  %53 = load i32, ptr %10, align 4
  %54 = load i32, ptr %13, align 4
  %55 = icmp sle i32 %53, %54
  br i1 %55, label %56, label %64

56:                                               ; preds = %52
  %57 = load i32, ptr %13, align 4
  %58 = load i32, ptr %10, align 4
  %59 = load i32, ptr %11, align 4
  %60 = add i32 %58, %59
  %61 = sub i32 %60, 1
  %62 = icmp sle i32 %57, %61
  br i1 %62, label %63, label %64

63:                                               ; preds = %56
  store i1 false, ptr %7, align 1
  br label %122

64:                                               ; preds = %56, %52
  %65 = load i32, ptr %13, align 4
  %66 = load i32, ptr %10, align 4
  %67 = icmp slt i32 %65, %66
  br i1 %67, label %68, label %96

68:                                               ; preds = %64
  call void @llvm.lifetime.start.p0(i64 24, ptr %16) #23
  call void @_ZN11QModelIndexC2Ev(ptr noundef align 8 dereferenceable_or_null(24) %16) #23
  %69 = load i32, ptr %10, align 4
  %70 = load i32, ptr %10, align 4
  %71 = load i32, ptr %11, align 4
  %72 = add i32 %70, %71
  %73 = sub i32 %72, 1
  call void @llvm.lifetime.start.p0(i64 24, ptr %17) #23
  call void @_ZN11QModelIndexC2Ev(ptr noundef align 8 dereferenceable_or_null(24) %17) #23
  %74 = load i32, ptr %13, align 4
  %75 = call noundef zeroext i1 @_ZN18QAbstractItemModel13beginMoveRowsERK11QModelIndexiiS2_i(ptr noundef align 8 dereferenceable_or_null(16) %22, ptr noundef align 8 dereferenceable(24) %16, i32 noundef %69, i32 noundef %73, ptr noundef align 8 dereferenceable(24) %17, i32 noundef %74)
  %76 = xor i1 %75, true
  call void @llvm.lifetime.end.p0(i64 24, ptr %17) #23
  call void @llvm.lifetime.end.p0(i64 24, ptr %16) #23
  br i1 %76, label %77, label %78

77:                                               ; preds = %68
  store i1 false, ptr %7, align 1
  br label %122

78:                                               ; preds = %68
  call void @llvm.lifetime.start.p0(i64 4, ptr %18) #23
  store i32 0, ptr %18, align 4
  br label %79

79:                                               ; preds = %92, %78
  %80 = load i32, ptr %18, align 4
  %81 = load i32, ptr %11, align 4
  %82 = icmp slt i32 %80, %81
  br i1 %82, label %84, label %83

83:                                               ; preds = %79
  call void @llvm.lifetime.end.p0(i64 4, ptr %18) #23
  br label %95

84:                                               ; preds = %79
  %85 = load i32, ptr %10, align 4
  %86 = load i32, ptr %18, align 4
  %87 = add i32 %85, %86
  %88 = load i32, ptr %13, align 4
  %89 = load i32, ptr %18, align 4
  %90 = add i32 %88, %89
  %91 = call noundef zeroext i1 @_ZN8UatModel14moveRowPrivateEii(ptr noundef align 8 dereferenceable_or_null(80) %22, i32 noundef %87, i32 noundef %90)
  br label %92

92:                                               ; preds = %84
  %93 = load i32, ptr %18, align 4
  %94 = add i32 %93, 1
  store i32 %94, ptr %18, align 4
  br label %79, !llvm.loop !15

95:                                               ; preds = %83
  br label %121

96:                                               ; preds = %64
  call void @llvm.lifetime.start.p0(i64 24, ptr %19) #23
  call void @_ZN11QModelIndexC2Ev(ptr noundef align 8 dereferenceable_or_null(24) %19) #23
  %97 = load i32, ptr %10, align 4
  %98 = load i32, ptr %10, align 4
  %99 = load i32, ptr %11, align 4
  %100 = add i32 %98, %99
  %101 = sub i32 %100, 1
  call void @llvm.lifetime.start.p0(i64 24, ptr %20) #23
  call void @_ZN11QModelIndexC2Ev(ptr noundef align 8 dereferenceable_or_null(24) %20) #23
  %102 = load i32, ptr %13, align 4
  %103 = add i32 %102, 1
  %104 = call noundef zeroext i1 @_ZN18QAbstractItemModel13beginMoveRowsERK11QModelIndexiiS2_i(ptr noundef align 8 dereferenceable_or_null(16) %22, ptr noundef align 8 dereferenceable(24) %19, i32 noundef %97, i32 noundef %101, ptr noundef align 8 dereferenceable(24) %20, i32 noundef %103)
  %105 = xor i1 %104, true
  call void @llvm.lifetime.end.p0(i64 24, ptr %20) #23
  call void @llvm.lifetime.end.p0(i64 24, ptr %19) #23
  br i1 %105, label %106, label %107

106:                                              ; preds = %96
  store i1 false, ptr %7, align 1
  br label %122

107:                                              ; preds = %96
  call void @llvm.lifetime.start.p0(i64 4, ptr %21) #23
  store i32 0, ptr %21, align 4
  br label %108

108:                                              ; preds = %117, %107
  %109 = load i32, ptr %21, align 4
  %110 = load i32, ptr %11, align 4
  %111 = icmp slt i32 %109, %110
  br i1 %111, label %113, label %112

112:                                              ; preds = %108
  call void @llvm.lifetime.end.p0(i64 4, ptr %21) #23
  br label %120

113:                                              ; preds = %108
  %114 = load i32, ptr %10, align 4
  %115 = load i32, ptr %13, align 4
  %116 = call noundef zeroext i1 @_ZN8UatModel14moveRowPrivateEii(ptr noundef align 8 dereferenceable_or_null(80) %22, i32 noundef %114, i32 noundef %115)
  br label %117

117:                                              ; preds = %113
  %118 = load i32, ptr %21, align 4
  %119 = add i32 %118, 1
  store i32 %119, ptr %21, align 4
  br label %108, !llvm.loop !16

120:                                              ; preds = %112
  br label %121

121:                                              ; preds = %120, %95
  call void @_ZN18QAbstractItemModel11endMoveRowsEv(ptr noundef align 8 dereferenceable_or_null(16) %22)
  store i1 true, ptr %7, align 1
  br label %122

122:                                              ; preds = %121, %106, %77, %63, %51, %47
  %123 = load i1, ptr %7, align 1
  ret i1 %123
}