; Function Attrs: mustprogress null_pointer_is_valid sspstrong uwtable
define noundef zeroext i1 @_ZN8UatModel8moveRowsERK11QModelIndexiiS2_i(ptr noundef align 8 dereferenceable_or_null(80) %0, ptr noundef readnone align 8 captures(none) dereferenceable(24) %1, i32 noundef %2, i32 noundef %3, ptr noundef readnone align 8 captures(none) dereferenceable(24) %4, i32 noundef %5) unnamed_addr #0 align 2 {
  %7 = alloca %class.QModelIndex, align 8
  %8 = alloca %class.QModelIndex, align 8
  %9 = alloca %class.QModelIndex, align 8
  %10 = alloca %class.QModelIndex, align 8
  %11 = alloca %class.QModelIndex, align 8
  %12 = alloca %class.QModelIndex, align 8
  %13 = icmp slt i32 %2, 0
  call void @llvm.lifetime.start.p0(i64 24, ptr nonnull %7) #24
  call void @llvm.lifetime.start.p0(i64 24, ptr nonnull %8) #24
  br i1 %13, label %.critedge, label %14

14:                                               ; preds = %6
  store i32 -1, ptr %7, align 8
  %15 = getelementptr inbounds nuw i8, ptr %7, i64 4
  store i32 -1, ptr %15, align 4
  %16 = getelementptr inbounds nuw i8, ptr %7, i64 8
  call void @llvm.memset.p0.i64(ptr noundef nonnull align 8 dereferenceable(16) %16, i8 0, i64 16, i1 false)
  %17 = load ptr, ptr %0, align 8
  %18 = getelementptr inbounds nuw i8, ptr %17, i64 120
  %19 = load ptr, ptr %18, align 8
  %20 = call noundef i32 %19(ptr noundef align 8 dereferenceable_or_null(80) %0, ptr noundef nonnull align 8 dereferenceable(24) %7)
  %21 = icmp sge i32 %2, %20
  %22 = icmp slt i32 %5, 0
  %or.cond = or i1 %22, %21
  br i1 %or.cond, label %.critedge, label %23

23:                                               ; preds = %14
  store i32 -1, ptr %8, align 8
  %24 = getelementptr inbounds nuw i8, ptr %8, i64 4
  store i32 -1, ptr %24, align 4
  %25 = getelementptr inbounds nuw i8, ptr %8, i64 8
  call void @llvm.memset.p0.i64(ptr noundef nonnull align 8 dereferenceable(16) %25, i8 0, i64 16, i1 false)
  %26 = load ptr, ptr %0, align 8
  %27 = getelementptr inbounds nuw i8, ptr %26, i64 120
  %28 = load ptr, ptr %27, align 8
  %29 = call noundef i32 %28(ptr noundef align 8 dereferenceable_or_null(80) %0, ptr noundef nonnull align 8 dereferenceable(24) %8)
  %.not = icmp slt i32 %5, %29
  br i1 %.not, label %30, label %.critedge

30:                                               ; preds = %23
  %31 = icmp slt i32 %3, 0
  call void @llvm.lifetime.end.p0(i64 24, ptr nonnull %8) #24
  call void @llvm.lifetime.end.p0(i64 24, ptr nonnull %7) #24
  br i1 %31, label %59, label %32

.critedge:                                        ; preds = %6, %14, %23
  call void @llvm.lifetime.end.p0(i64 24, ptr nonnull %8) #24
  call void @llvm.lifetime.end.p0(i64 24, ptr nonnull %7) #24
  br label %59

32:                                               ; preds = %30
  %33 = icmp eq i32 %3, 0
  br i1 %33, label %59, label %34

34:                                               ; preds = %32
  %.not40 = icmp samesign ugt i32 %2, %5
  br i1 %.not40, label %38, label %35

35:                                               ; preds = %34
  %36 = add nsw i32 %2, -1
  %37 = add i32 %36, %3
  %.not41 = icmp sgt i32 %5, %37
  br i1 %.not41, label %50, label %59

38:                                               ; preds = %34
  call void @llvm.lifetime.start.p0(i64 24, ptr nonnull %9) #24
  store i32 -1, ptr %9, align 8
  %39 = getelementptr inbounds nuw i8, ptr %9, i64 4
  store i32 -1, ptr %39, align 4
  %40 = getelementptr inbounds nuw i8, ptr %9, i64 8
  call void @llvm.memset.p0.i64(ptr noundef nonnull align 8 dereferenceable(16) %40, i8 0, i64 16, i1 false)
  %41 = add nsw i32 %2, -1
  %42 = add nuw i32 %41, %3
  call void @llvm.lifetime.start.p0(i64 24, ptr nonnull %10) #24
  store i32 -1, ptr %10, align 8
  %43 = getelementptr inbounds nuw i8, ptr %10, i64 4
  store i32 -1, ptr %43, align 4
  %44 = getelementptr inbounds nuw i8, ptr %10, i64 8
  call void @llvm.memset.p0.i64(ptr noundef nonnull align 8 dereferenceable(16) %44, i8 0, i64 16, i1 false)
  %45 = call noundef zeroext i1 @_ZN18QAbstractItemModel13beginMoveRowsERK11QModelIndexiiS2_i(ptr noundef align 8 dereferenceable_or_null(16) %0, ptr noundef nonnull align 8 dereferenceable(24) %9, i32 noundef %2, i32 noundef %42, ptr noundef nonnull align 8 dereferenceable(24) %10, i32 noundef %5)
  call void @llvm.lifetime.end.p0(i64 24, ptr nonnull %10) #24
  call void @llvm.lifetime.end.p0(i64 24, ptr nonnull %9) #24
  br i1 %45, label %.lr.ph46, label %59

.lr.ph46:                                         ; preds = %38, %.lr.ph46
  %.03545 = phi i32 [ %49, %.lr.ph46 ], [ 0, %38 ]
  %46 = add nuw i32 %.03545, %2
  %47 = add nuw i32 %.03545, %5
  %48 = call noundef zeroext i1 @_ZN8UatModel14moveRowPrivateEii(ptr noundef align 8 dereferenceable_or_null(80) %0, i32 noundef %46, i32 noundef %47)
  %49 = add nuw nsw i32 %.03545, 1
  %exitcond48.not = icmp eq i32 %49, %3
  br i1 %exitcond48.not, label %.loopexit, label %.lr.ph46, !llvm.loop !32

50:                                               ; preds = %35
  call void @llvm.lifetime.start.p0(i64 24, ptr nonnull %11) #24
  store i32 -1, ptr %11, align 8
  %51 = getelementptr inbounds nuw i8, ptr %11, i64 4
  store i32 -1, ptr %51, align 4
  %52 = getelementptr inbounds nuw i8, ptr %11, i64 8
  call void @llvm.memset.p0.i64(ptr noundef nonnull align 8 dereferenceable(16) %52, i8 0, i64 16, i1 false)
  call void @llvm.lifetime.start.p0(i64 24, ptr nonnull %12) #24
  store i32 -1, ptr %12, align 8
  %53 = getelementptr inbounds nuw i8, ptr %12, i64 4
  store i32 -1, ptr %53, align 4
  %54 = getelementptr inbounds nuw i8, ptr %12, i64 8
  call void @llvm.memset.p0.i64(ptr noundef nonnull align 8 dereferenceable(16) %54, i8 0, i64 16, i1 false)
  %55 = add nuw nsw i32 %5, 1
  %56 = call noundef zeroext i1 @_ZN18QAbstractItemModel13beginMoveRowsERK11QModelIndexiiS2_i(ptr noundef align 8 dereferenceable_or_null(16) %0, ptr noundef nonnull align 8 dereferenceable(24) %11, i32 noundef %2, i32 noundef %37, ptr noundef nonnull align 8 dereferenceable(24) %12, i32 noundef %55)
  call void @llvm.lifetime.end.p0(i64 24, ptr nonnull %12) #24
  call void @llvm.lifetime.end.p0(i64 24, ptr nonnull %11) #24
  br i1 %56, label %.lr.ph, label %59

.lr.ph:                                           ; preds = %50, %.lr.ph
  %.044 = phi i32 [ %58, %.lr.ph ], [ 0, %50 ]
  %57 = call noundef zeroext i1 @_ZN8UatModel14moveRowPrivateEii(ptr noundef align 8 dereferenceable_or_null(80) %0, i32 noundef %2, i32 noundef %5)
  %58 = add nuw nsw i32 %.044, 1
  %exitcond.not = icmp eq i32 %58, %3
  br i1 %exitcond.not, label %.loopexit, label %.lr.ph, !llvm.loop !33

.loopexit:                                        ; preds = %.lr.ph, %.lr.ph46
  call void @_ZN18QAbstractItemModel11endMoveRowsEv(ptr noundef align 8 dereferenceable_or_null(16) %0)
  br label %59

59:                                               ; preds = %50, %38, %35, %32, %30, %.critedge, %.loopexit
  %.036 = phi i1 [ true, %.loopexit ], [ false, %.critedge ], [ false, %30 ], [ true, %32 ], [ false, %35 ], [ false, %38 ], [ false, %50 ]
  ret i1 %.036
}